EXPORTS
	??0CXdmDirectory@@IAE@AAVCXdmEngine@@@Z @ 1 NONAME ; CXdmDirectory::CXdmDirectory(class CXdmEngine &)
	??0CXdmDocument@@IAE@AAVCXdmEngine@@@Z @ 2 NONAME ; CXdmDocument::CXdmDocument(class CXdmEngine &)
	??0CXdmDocumentNode@@IAE@AAVCXdmEngine@@AAVMXdmNodeFactory@@@Z @ 3 NONAME ; CXdmDocumentNode::CXdmDocumentNode(class CXdmEngine &, class MXdmNodeFactory &)
	??0CXdmDocumentNode@@IAE@AAVCXdmEngine@@AAVMXdmNodeFactory@@PAV0@@Z @ 4 NONAME ; CXdmDocumentNode::CXdmDocumentNode(class CXdmEngine &, class MXdmNodeFactory &, class CXdmDocumentNode *)
	??0CXdmDocumentNode@@IAE@HAAVCXdmEngine@@AAVMXdmNodeFactory@@PAV0@@Z @ 5 NONAME ; CXdmDocumentNode::CXdmDocumentNode(int, class CXdmEngine &, class MXdmNodeFactory &, class CXdmDocumentNode *)
	??0CXdmNodeAttribute@@IAE@AAVCXdmEngine@@AAVMXdmNodeFactory@@@Z @ 6 NONAME ; CXdmNodeAttribute::CXdmNodeAttribute(class CXdmEngine &, class MXdmNodeFactory &)
	??0CXdmNodeAttribute@@IAE@AAVCXdmEngine@@AAVMXdmNodeFactory@@PAVCXdmDocumentNode@@@Z @ 7 NONAME ; CXdmNodeAttribute::CXdmNodeAttribute(class CXdmEngine &, class MXdmNodeFactory &, class CXdmDocumentNode *)
	??0TXdmCredentials@@QAE@ABVTDesC16@@0@Z @ 8 NONAME ; TXdmCredentials::TXdmCredentials(class TDesC16 const &, class TDesC16 const &)
	??0TXdmCredentials@@QAE@XZ @ 9 NONAME ; TXdmCredentials::TXdmCredentials(void)
	??1CXdmDirectory@@UAE@XZ @ 10 NONAME ; CXdmDirectory::~CXdmDirectory(void)
	??1CXdmDocument@@UAE@XZ @ 11 NONAME ; CXdmDocument::~CXdmDocument(void)
	??1CXdmDocumentNode@@UAE@XZ @ 12 NONAME ; CXdmDocumentNode::~CXdmDocumentNode(void)
	??1CXdmEngine@@UAE@XZ @ 13 NONAME ; CXdmEngine::~CXdmEngine(void)
	??1CXdmNodeAttribute@@UAE@XZ @ 14 NONAME ; CXdmNodeAttribute::~CXdmNodeAttribute(void)
	??1CXdmProtocolInfo@@UAE@XZ @ 15 NONAME ; CXdmProtocolInfo::~CXdmProtocolInfo(void)
	??8CXdmDocument@@QBEHAAV0@@Z @ 16 NONAME ; int CXdmDocument::operator==(class CXdmDocument &) const
	??8CXdmDocumentNode@@QBEHABV0@@Z @ 17 NONAME ; int CXdmDocumentNode::operator==(class CXdmDocumentNode const &) const
	?AccessPoint@CXdmProtocolInfo@@QBEHXZ @ 18 NONAME ; int CXdmProtocolInfo::AccessPoint(void) const
	?AppendChileNodeL@CXdmDocumentNode@@QAEXPAV1@@Z @ 19 NONAME ; void CXdmDocumentNode::AppendChileNodeL(class CXdmDocumentNode *)
	?AppendL@CXdmDocument@@QAEXPAVCXdmDocumentNode@@@Z @ 20 NONAME ; void CXdmDocument::AppendL(class CXdmDocumentNode *)
	?AppendToModelL@CXdmDocument@@QAEXPAVCXdmDocumentNode@@0@Z @ 21 NONAME ; void CXdmDocument::AppendToModelL(class CXdmDocumentNode *, class CXdmDocumentNode *)
	?Attribute@CXdmDocumentNode@@QBEPAVCXdmNodeAttribute@@ABVTDesC16@@@Z @ 22 NONAME ; class CXdmNodeAttribute * CXdmDocumentNode::Attribute(class TDesC16 const &) const
	?Attribute@CXdmDocumentNode@@QBEPAVCXdmNodeAttribute@@H@Z @ 23 NONAME ; class CXdmNodeAttribute * CXdmDocumentNode::Attribute(int) const
	?AttributeCount@CXdmDocumentNode@@QBEHXZ @ 24 NONAME ; int CXdmDocumentNode::AttributeCount(void) const
	?AttributeValue@CXdmNodeAttribute@@QBE?AVTPtrC16@@XZ @ 25 NONAME ; class TPtrC16 CXdmNodeAttribute::AttributeValue(void) const
	?BaseConstructL@CXdmDirectory@@IAEXABVTDesC16@@@Z @ 26 NONAME ; void CXdmDirectory::BaseConstructL(class TDesC16 const &)
	?BaseConstructL@CXdmDocument@@IAEXHABVTDesC16@@@Z @ 27 NONAME ; void CXdmDocument::BaseConstructL(int, class TDesC16 const &)
	?BaseConstructL@CXdmDocument@@IAEXHABVTDesC8@@@Z @ 28 NONAME ; void CXdmDocument::BaseConstructL(int, class TDesC8 const &)
	?BaseConstructL@CXdmDocumentNode@@IAEXABVTDesC16@@@Z @ 29 NONAME ; void CXdmDocumentNode::BaseConstructL(class TDesC16 const &)
	?BaseConstructL@CXdmNodeAttribute@@IAEXABVTDesC16@@@Z @ 30 NONAME ; void CXdmNodeAttribute::BaseConstructL(class TDesC16 const &)
	?CancelUpdate@CXdmEngine@@QAEXPAVCXdmDirectory@@@Z @ 31 NONAME ; void CXdmEngine::CancelUpdate(class CXdmDirectory *)
	?CancelUpdate@CXdmEngine@@QAEXPAVCXdmDocument@@@Z @ 32 NONAME ; void CXdmEngine::CancelUpdate(class CXdmDocument *)
	?CheckFileExistsL@XdmStaticUtils@@SAHAAVRFs@@ABVTDesC16@@@Z @ 33 NONAME ; int XdmStaticUtils::CheckFileExistsL(class RFs &, class TDesC16 const &)
	?ChileNode@CXdmDocumentNode@@QBEPAV1@H@Z @ 34 NONAME ; class CXdmDocumentNode * CXdmDocumentNode::ChileNode(int) const
	?CleanUpDirectoryL@XdmStaticUtils@@SAXAAVRFs@@ABVTDesC16@@@Z @ 35 NONAME ; void XdmStaticUtils::CleanUpDirectoryL(class RFs &, class TDesC16 const &)
	?CopyConstructL@CXdmDocumentNode@@MAEXABV1@0@Z @ 36 NONAME ; void CXdmDocumentNode::CopyConstructL(class CXdmDocumentNode const &, class CXdmDocumentNode const &)
	?CreateAttributeL@CXdmDocumentNode@@QAEPAVCXdmNodeAttribute@@ABVTDesC16@@@Z @ 37 NONAME ; class CXdmNodeAttribute * CXdmDocumentNode::CreateAttributeL(class TDesC16 const &)
	?CreateAttributeL@CXdmDocumentNode@@QAEPAVCXdmNodeAttribute@@XZ @ 38 NONAME ; class CXdmNodeAttribute * CXdmDocumentNode::CreateAttributeL(void)
	?CreateChileNodeL@CXdmDocumentNode@@QAEPAV1@ABVTDesC16@@@Z @ 39 NONAME ; class CXdmDocumentNode * CXdmDocumentNode::CreateChileNodeL(class TDesC16 const &)
	?CreateChileNodeL@CXdmDocumentNode@@QAEPAV1@XZ @ 40 NONAME ; class CXdmDocumentNode * CXdmDocumentNode::CreateChileNodeL(void)
	?CreateDirectoryModelL@CXdmEngine@@QAEPAVCXdmDirectory@@ABVTDesC16@@@Z @ 41 NONAME ; class CXdmDirectory * CXdmEngine::CreateDirectoryModelL(class TDesC16 const &)
	?CreateDocumentModelL@CXdmEngine@@QAEPAVCXdmDocument@@ABVTDesC16@@W4TXdmDocType@@@Z @ 42 NONAME ; class CXdmDocument * CXdmEngine::CreateDocumentModelL(class TDesC16 const &, enum TXdmDocType)
	?CreateDocumentNodeL@CXdmEngine@@QAEPAVCXdmDocumentNode@@XZ @ 43 NONAME ; class CXdmDocumentNode * CXdmEngine::CreateDocumentNodeL(void)
	?Credentials@CXdmProtocolInfo@@QBEABVTXdmCredentials@@XZ @ 44 NONAME ; class TXdmCredentials const & CXdmProtocolInfo::Credentials(void) const
	?DeleteDataL@CXdmDocument@@QAEXPAVCXdmDocumentNode@@@Z @ 45 NONAME ; void CXdmDocument::DeleteDataL(class CXdmDocumentNode *)
	?DeleteDirectoryModelL@CXdmEngine@@QAEXPBVCXdmDirectory@@@Z @ 46 NONAME ; void CXdmEngine::DeleteDirectoryModelL(class CXdmDirectory const *)
	?DeleteDocumentModelL@CXdmEngine@@QAEXPBVCXdmDocument@@@Z @ 47 NONAME ; void CXdmEngine::DeleteDocumentModelL(class CXdmDocument const *)
	?DirectoryCollection@CXdmEngine@@QBEABV?$RPointerArray@VCXdmDirectory@@@@XZ @ 48 NONAME ; class RPointerArray<class CXdmDirectory> const & CXdmEngine::DirectoryCollection(void) const
	?DocumentCollection@CXdmEngine@@QBEABV?$RPointerArray@VCXdmDocument@@@@XZ @ 49 NONAME ; class RPointerArray<class CXdmDocument> const & CXdmEngine::DocumentCollection(void) const
	?DocumentSubsetL@CXdmDocument@@QAEPAVCXdmDocumentNode@@ABVTDesC16@@@Z @ 50 NONAME ; class CXdmDocumentNode * CXdmDocument::DocumentSubsetL(class TDesC16 const &)
	?EightBitNodeNameLC@CXdmDocumentNode@@QBEPAVHBufC8@@XZ @ 51 NONAME ; class HBufC8 * CXdmDocumentNode::EightBitNodeNameLC(void) const
	?EightBitValueLC@CXdmNodeAttribute@@QBEPAVHBufC8@@XZ @ 52 NONAME ; class HBufC8 * CXdmNodeAttribute::EightBitValueLC(void) const
	?ElementDataLC@CXdmDocumentNode@@QBEPAVHBufC8@@XZ @ 53 NONAME ; class HBufC8 * CXdmDocumentNode::ElementDataLC(void) const
	?ElementType@CXdmDocumentNode@@UBE?AW4TXdmElementType@@XZ @ 54 NONAME ; enum TXdmElementType CXdmDocumentNode::ElementType(void) const
	?ElementType@CXdmNodeAttribute@@UBE?AW4TXdmElementType@@XZ @ 55 NONAME ; enum TXdmElementType CXdmNodeAttribute::ElementType(void) const
	?EscapeLeafNodeContentLC@CXdmDocumentNode@@QBEPAVHBufC8@@XZ @ 56 NONAME ; class HBufC8 * CXdmDocumentNode::EscapeLeafNodeContentLC(void) const
	?EscapedValueLC@CXdmNodeAttribute@@QBEPAVHBufC8@@XZ @ 57 NONAME ; class HBufC8 * CXdmNodeAttribute::EscapedValueLC(void) const
	?FetchDataL@CXdmDocument@@QAEXPAVCXdmDocumentNode@@@Z @ 58 NONAME ; void CXdmDocument::FetchDataL(class CXdmDocumentNode *)
	?Find@CXdmDocument@@QBEHABVCXdmDocumentNode@@AAV?$RPointerArray@VCXdmDocumentNode@@@@@Z @ 59 NONAME ; int CXdmDocument::Find(class CXdmDocumentNode const &, class RPointerArray<class CXdmDocumentNode> &) const
	?Find@CXdmDocument@@QBEHABVTDesC16@@AAV?$RPointerArray@VCXdmDocumentNode@@@@@Z @ 60 NONAME ; int CXdmDocument::Find(class TDesC16 const &, class RPointerArray<class CXdmDocumentNode> &) const
	?Find@CXdmDocument@@QBEHABVTDesC16@@AAV?$RPointerArray@VCXdmDocumentNode@@@@ABV?$RPointerArray@USXdmAttribute16@@@@@Z @ 61 NONAME ; int CXdmDocument::Find(class TDesC16 const &, class RPointerArray<class CXdmDocumentNode> &, class RPointerArray<struct SXdmAttribute16> const &) const
	?Find@CXdmDocument@@QBEHABVTDesC16@@AAV?$RPointerArray@VCXdmNodeAttribute@@@@@Z @ 62 NONAME ; int CXdmDocument::Find(class TDesC16 const &, class RPointerArray<class CXdmNodeAttribute> &) const
	?Find@CXdmDocumentNode@@QBEHABV1@AAV?$RPointerArray@VCXdmDocumentNode@@@@@Z @ 63 NONAME ; int CXdmDocumentNode::Find(class CXdmDocumentNode const &, class RPointerArray<class CXdmDocumentNode> &) const
	?Find@CXdmDocumentNode@@QBEHABVTDesC16@@AAV?$RPointerArray@VCXdmDocumentNode@@@@@Z @ 64 NONAME ; int CXdmDocumentNode::Find(class TDesC16 const &, class RPointerArray<class CXdmDocumentNode> &) const
	?Find@CXdmDocumentNode@@QBEHABVTDesC16@@AAV?$RPointerArray@VCXdmDocumentNode@@@@ABV?$RPointerArray@USXdmAttribute16@@@@@Z @ 65 NONAME ; int CXdmDocumentNode::Find(class TDesC16 const &, class RPointerArray<class CXdmDocumentNode> &, class RPointerArray<struct SXdmAttribute16> const &) const
	?GenerateFileNameL@XdmStaticUtils@@SAPAVHBufC16@@AAVRFs@@ABVTDesC16@@1@Z @ 66 NONAME ; class HBufC16 * XdmStaticUtils::GenerateFileNameL(class RFs &, class TDesC16 const &, class TDesC16 const &)
	?HasAttribute@CXdmDocumentNode@@QBEHABVTDesC16@@@Z @ 67 NONAME ; int CXdmDocumentNode::HasAttribute(class TDesC16 const &) const
	?InsertChileNodeL@CXdmDocumentNode@@QAEXHPAV1@@Z @ 68 NONAME ; void CXdmDocumentNode::InsertChileNodeL(int, class CXdmDocumentNode *)
	?InsertL@CXdmDocument@@QAEXPAVCXdmDocumentNode@@@Z @ 69 NONAME ; void CXdmDocument::InsertL(class CXdmDocumentNode *)
	?IsCacheEnabled@CXdmProtocolInfo@@QBEHXZ @ 70 NONAME ; int CXdmProtocolInfo::IsCacheEnabled(void) const
	?IsEmptyNode@CXdmDocumentNode@@QBEHXZ @ 71 NONAME ; int CXdmDocumentNode::IsEmptyNode(void) const
	?IsLeafNode@CXdmDocumentNode@@QBEHXZ @ 72 NONAME ; int CXdmDocumentNode::IsLeafNode(void) const
	?IsSecure@CXdmProtocolInfo@@QBEHXZ @ 73 NONAME ; int CXdmProtocolInfo::IsSecure(void) const
	?LeafNodeContent@CXdmDocumentNode@@QBE?AVTPtrC8@@XZ @ 74 NONAME ; class TPtrC8 CXdmDocumentNode::LeafNodeContent(void) const
	?Match@CXdmDocumentNode@@QBEHABV1@@Z @ 75 NONAME ; int CXdmDocumentNode::Match(class CXdmDocumentNode const &) const
	?Match@CXdmDocumentNode@@QBEHABVTDesC16@@ABV?$RPointerArray@USXdmAttribute8@@@@@Z @ 76 NONAME ; int CXdmDocumentNode::Match(class TDesC16 const &, class RPointerArray<struct SXdmAttribute8> const &) const
	?Name@CXdmDocument@@QBE?AVTPtrC16@@XZ @ 77 NONAME ; class TPtrC16 CXdmDocument::Name(void) const
	?NewL@CXdmEngine@@SAPAV1@ABVCXdmProtocolInfo@@@Z @ 78 NONAME ; class CXdmEngine * CXdmEngine::NewL(class CXdmProtocolInfo const &)
	?NewL@CXdmLogWriter@@SAPAV1@ABVTDesC16@@@Z @ 79 NONAME ; class CXdmLogWriter * CXdmLogWriter::NewL(class TDesC16 const &)
	?NewL@CXdmProtocolInfo@@SAPAV1@H@Z @ 80 NONAME ; class CXdmProtocolInfo * CXdmProtocolInfo::NewL(int)
	?NewL@CXdmProtocolInfo@@SAPAV1@HHABVTDesC16@@@Z @ 81 NONAME ; class CXdmProtocolInfo * CXdmProtocolInfo::NewL(int, int, class TDesC16 const &)
	?NextNode@CXdmDocumentNode@@QBEPAV1@XZ @ 82 NONAME ; class CXdmDocumentNode * CXdmDocumentNode::NextNode(void) const
	?NodeCount@CXdmDocumentNode@@QBEHXZ @ 83 NONAME ; int CXdmDocumentNode::NodeCount(void) const
	?NodeName@CXdmDocumentNode@@QBE?AVTPtrC16@@XZ @ 84 NONAME ; class TPtrC16 CXdmDocumentNode::NodeName(void) const
	?Parent@CXdmDocumentNode@@QBEPAV1@XZ @ 85 NONAME ; class CXdmDocumentNode * CXdmDocumentNode::Parent(void) const
	?Print@CXdmDocumentNode@@QAEXXZ @ 86 NONAME ; void CXdmDocumentNode::Print(void)
	?ProtocolUid@CXdmProtocolInfo@@QBE?AVTUid@@XZ @ 87 NONAME ; class TUid CXdmProtocolInfo::ProtocolUid(void) const
	?RemoveChileNodeL@CXdmDocumentNode@@QAEXPAV1@@Z @ 88 NONAME ; void CXdmDocumentNode::RemoveChileNodeL(class CXdmDocumentNode *)
	?RemoveFromModelL@CXdmDocument@@QAEXPAVCXdmDocumentNode@@@Z @ 89 NONAME ; void CXdmDocument::RemoveFromModelL(class CXdmDocumentNode *)
	?ReplaceChileNodeL@CXdmDocumentNode@@QAEXPAV1@0@Z @ 90 NONAME ; void CXdmDocumentNode::ReplaceChileNodeL(class CXdmDocumentNode *, class CXdmDocumentNode *)
	?ReplaceInModelL@CXdmDocument@@QAEXPAVCXdmDocumentNode@@0@Z @ 91 NONAME ; void CXdmDocument::ReplaceInModelL(class CXdmDocumentNode *, class CXdmDocumentNode *)
	?ReplaceL@CXdmDocument@@QAEXPAVCXdmDocumentNode@@0@Z @ 92 NONAME ; void CXdmDocument::ReplaceL(class CXdmDocumentNode *, class CXdmDocumentNode *)
	?ReplaceL@CXdmDocument@@QAEXXZ @ 93 NONAME ; void CXdmDocument::ReplaceL(void)
	?ResetSubset@CXdmDocument@@UAEXXZ @ 94 NONAME ; void CXdmDocument::ResetSubset(void)
	?Root@CXdmProtocolInfo@@QBE?AVTPtrC16@@XZ @ 95 NONAME ; class TPtrC16 CXdmProtocolInfo::Root(void) const
	?SetAttributeValueL@CXdmNodeAttribute@@QAEXABVTDesC16@@@Z @ 96 NONAME ; void CXdmNodeAttribute::SetAttributeValueL(class TDesC16 const &)
	?SetAttributeValueL@CXdmNodeAttribute@@QAEXABVTDesC8@@@Z @ 97 NONAME ; void CXdmNodeAttribute::SetAttributeValueL(class TDesC8 const &)
	?SetCacheUsage@CXdmProtocolInfo@@QAEXH@Z @ 98 NONAME ; void CXdmProtocolInfo::SetCacheUsage(int)
	?SetCredentials@CXdmProtocolInfo@@QAEXVTXdmCredentials@@@Z @ 99 NONAME ; void CXdmProtocolInfo::SetCredentials(class TXdmCredentials)
	?SetEmptyNode@CXdmDocumentNode@@QAEXH@Z @ 100 NONAME ; void CXdmDocumentNode::SetEmptyNode(int)
	?SetLeafNode@CXdmDocumentNode@@QAEXH@Z @ 101 NONAME ; void CXdmDocumentNode::SetLeafNode(int)
	?SetLeafNodeContentL@CXdmDocumentNode@@QAEXABVTDesC16@@@Z @ 102 NONAME ; void CXdmDocumentNode::SetLeafNodeContentL(class TDesC16 const &)
	?SetLeafNodeContentL@CXdmDocumentNode@@QAEXABVTDesC8@@@Z @ 103 NONAME ; void CXdmDocumentNode::SetLeafNodeContentL(class TDesC8 const &)
	?SetNameL@CXdmDocumentNode@@QAEXABVTDesC16@@@Z @ 104 NONAME ; void CXdmDocumentNode::SetNameL(class TDesC16 const &)
	?SetNameL@CXdmDocumentNode@@QAEXABVTDesC8@@@Z @ 105 NONAME ; void CXdmDocumentNode::SetNameL(class TDesC8 const &)
	?SetNextNode@CXdmDocumentNode@@QAEXPAV1@@Z @ 106 NONAME ; void CXdmDocumentNode::SetNextNode(class CXdmDocumentNode *)
	?SetSecurity@CXdmProtocolInfo@@QAEXH@Z @ 107 NONAME ; void CXdmProtocolInfo::SetSecurity(int)
	?SettingsID@CXdmProtocolInfo@@QBEHXZ @ 108 NONAME ; int CXdmProtocolInfo::SettingsID(void) const
	?UpdateL@CXdmEngine@@QAEXAAVTRequestStatus@@PAVCXdmDirectory@@W4TDirUpdatePhase@@@Z @ 109 NONAME ; void CXdmEngine::UpdateL(class TRequestStatus &, class CXdmDirectory *, enum TDirUpdatePhase)
	?UpdateL@CXdmEngine@@QAEXPAVCXdmDocument@@AAVTRequestStatus@@@Z @ 110 NONAME ; void CXdmEngine::UpdateL(class CXdmDocument *, class TRequestStatus &)
	?WriteToLog@CXdmLogWriter@@QBEXABVTDesC16@@@Z @ 111 NONAME ; void CXdmLogWriter::WriteToLog(class TDesC16 const &) const
	?WriteToLog@CXdmLogWriter@@QBEXABVTDesC8@@@Z @ 112 NONAME ; void CXdmLogWriter::WriteToLog(class TDesC8 const &) const
	?XdmSettingsLC@CXdmEngine@@SAPAVCDesC16Array@@AAV?$RArray@H@@@Z @ 113 NONAME ; class CDesC16Array * CXdmEngine::XdmSettingsLC(class RArray<int> &)

