EXPORTS
	_Z24ImplementationGroupProxyRi @ 1 NONAME
	_ZN13CXcapAppUsage4NewLERK10CXdmEnginei @ 2 NONAME
	_ZN13CXcapAppUsage8ValidateER12CXdmDocumenti @ 3 NONAME
	_ZN13CXcapAppUsage8ValidateER16CXdmDocumentNodeP17MXcapUriInterfacei @ 4 NONAME
	_ZTI13CXcapAppUsage @ 5 NONAME ; #<TI>#
	_ZTI18CXcapPocGroupUsage @ 6 NONAME ; #<TI>#
	_ZTI19CXcapDirectoryUsage @ 7 NONAME ; #<TI>#
	_ZTI19CXcapSharedXDMUsage @ 8 NONAME ; #<TI>#
	_ZTI20CXcapCapabilityUsage @ 9 NONAME ; #<TI>#
	_ZTI21CXcapRlsServicesUsage @ 10 NONAME ; #<TI>#
	_ZTI22CXcapOmaPresRulesUsage @ 11 NONAME ; #<TI>#
	_ZTI23CXcapIetfPresRulesUsage @ 12 NONAME ; #<TI>#
	_ZTI23CXcapPocUserAccessUsage @ 13 NONAME ; #<TI>#
	_ZTI23CXcapResourceListsUsage @ 14 NONAME ; #<TI>#
	_ZTI25CXcapOmaCommonPolicyUsage @ 15 NONAME ; #<TI>#
	_ZTI26CXcapIetfCommonPolicyUsage @ 16 NONAME ; #<TI>#
	_ZTV13CXcapAppUsage @ 17 NONAME ; #<VT>#
	_ZTV18CXcapPocGroupUsage @ 18 NONAME ; #<VT>#
	_ZTV19CXcapDirectoryUsage @ 19 NONAME ; #<VT>#
	_ZTV19CXcapSharedXDMUsage @ 20 NONAME ; #<VT>#
	_ZTV20CXcapCapabilityUsage @ 21 NONAME ; #<VT>#
	_ZTV21CXcapRlsServicesUsage @ 22 NONAME ; #<VT>#
	_ZTV22CXcapOmaPresRulesUsage @ 23 NONAME ; #<VT>#
	_ZTV23CXcapIetfPresRulesUsage @ 24 NONAME ; #<VT>#
	_ZTV23CXcapPocUserAccessUsage @ 25 NONAME ; #<VT>#
	_ZTV23CXcapResourceListsUsage @ 26 NONAME ; #<VT>#
	_ZTV25CXcapOmaCommonPolicyUsage @ 27 NONAME ; #<VT>#
	_ZTV26CXcapIetfCommonPolicyUsage @ 28 NONAME ; #<VT>#

